; Function Attrs: mustprogress nofree nounwind uwtable
define hidden void @_ZN4lean6is_dirERKNSt7__cxx1112basic_stringIcSt11char_traitsIcESaIcEEE(ptr dead_on_unwind noalias writable writeonly sret(%"class.lean::optional") align 1 captures(none) initializes((0, 1)) %0, ptr noundef nonnull readonly align 8 captures(none) dereferenceable(32) %1) local_unnamed_addr #10 {
  %3 = alloca %struct.stat, align 8
  call void @llvm.lifetime.start.p0(i64 144, ptr nonnull %3) #24
  %4 = load ptr, ptr %1, align 8, !tbaa !3
  %5 = call i32 @stat(ptr noundef %4, ptr noundef nonnull %3) #24
  %6 = icmp eq i32 %5, 0
  br i1 %6, label %7, label %14

7:                                                ; preds = %2
  %8 = getelementptr inbounds nuw i8, ptr %3, i64 24
  %9 = load i32, ptr %8, align 8, !tbaa !41
  %10 = and i32 %9, 61440
  %11 = icmp eq i32 %10, 16384
  %12 = zext i1 %11 to i8
  %13 = getelementptr inbounds nuw i8, ptr %0, i64 1
  store i8 %12, ptr %13, align 1, !tbaa !57
  br label %14

14:                                               ; preds = %2, %7
  %.sink = phi i8 [ 1, %7 ], [ 0, %2 ]
  store i8 %.sink, ptr %0, align 1, !tbaa !59
  call void @llvm.lifetime.end.p0(i64 144, ptr nonnull %3) #24
  ret void
}